target datalayout = "e-m:e-p270:32:32-p271:32:32-p272:64:64-i64:64-i128:128-f80:128-n8:16:32:64-S128"
target triple = "x86_64-pc-linux-gnu"

%struct.redisServer = type { i32, i64, ptr, ptr, ptr, i32, i32, i32, i32, i32, ptr, ptr, ptr, ptr, ptr, i32, i32, i32, i32, i64, i32, i32, i32, i32, ptr, i32, i32, [41 x i8], i32, i64, i32, i32, i32, ptr, ptr, i32, i32, i64, ptr, ptr, ptr, ptr, [2 x i32], i32, i32, i32, i32, i32, i32, [16 x ptr], i32, ptr, ptr, i32, [8 x %struct.connListener], i32, %struct.connListener, ptr, ptr, ptr, ptr, ptr, ptr, ptr, ptr, ptr, ptr, i32, ptr, i32, ptr, [3 x %struct.pause_event], [256 x i8], ptr, i64, i32, i32, [128 x i32], i32, i32, i64, i32, i32, i32, i32, i32, i64, i64, i64, i64, i64, i64, i64, i64, i64, i64, double, i64, i64, i64, i64, i64, i64, i64, i64, i64, i64, i64, i64, i64, i64, i64, i64, i64, i64, i64, i64, i64, double, i64, i64, i64, i64, i64, ptr, i64, i64, i64, %struct.malloc_stats, i64, i64, i64, i64, i64, i64, i64, i64, i64, i64, i64, i64, double, [4 x i64], i64, i64, i64, i64, [128 x i64], [128 x i64], i64, i64, [7 x %struct.anon], i64, i64, i64, i64, i64, i64, [4 x %struct.durationStats], i32, i32, i32, i32, i32, i32, i32, i32, i32, i32, i32, i32, i64, i32, i32, i32, i32, i64, i64, i32, i32, i32, i32, i32, ptr, [3 x %struct.clientBufferLimitsConfig], i32, i32, i32, ptr, i32, i32, i32, i32, i32, i32, ptr, ptr, i32, i32, i64, i64, i64, i64, i64, i32, i32, ptr, i32, i32, i64, i64, i64, i64, i64, i32, i32, i64, i32, i32, i32, i32, i32, i32, i32, i32, ptr, i32, i64, i64, i64, i64, i32, ptr, i32, ptr, i32, i32, i32, i64, i64, i64, i64, i32, i32, i32, i32, i32, i32, ptr, i32, i32, ptr, i32, i32, i32, [2 x i32], i32, %struct.redisOpArray, i32, ptr, i32, ptr, i32, i32, i32, i32, i32, i32, i32, [41 x i8], [41 x i8], i64, i64, i64, i64, i32, i32, ptr, i64, i64, %struct.replDataBuf, i64, i64, i32, i32, i32, i32, i32, i32, i32, i32, i32, i64, ptr, i64, ptr, ptr, ptr, i32, i32, ptr, ptr, i32, i32, i32, i64, i64, i64, i64, ptr, ptr, i32, ptr, i64, i32, i32, i32, i64, i32, i32, i32, i32, ptr, i32, i32, [41 x i8], i64, i32, ptr, i32, i32, i64, i64, i32, i32, i32, i32, i32, i64, [3 x i32], i32, i32, i32, [10 x i32], ptr, ptr, i32, i64, ptr, ptr, i32, i32, i32, i32, i64, i64, i64, i64, i64, i64, i64, i64, i64, i64, i32, i32, i64, i64, i32, i64, i64, i64, i64, i64, ptr, ptr, i32, ptr, i32, i32, i32, i32, i64, i64, ptr, ptr, i32, i32, i32, i32, i32, ptr, ptr, ptr, i32, i32, i32, i32, i32, i32, i32, i64, i32, i32, i64, i32, i32, i32, i32, i32, i32, i32, i64, ptr, ptr, i64, ptr, i32, %struct.aclInfo, i32, i64, i32, i32, i32, %struct.redisTLSContextConfig, ptr, ptr, ptr, ptr, ptr, i64, i32, ptr, i32, i32, i32, i64, i32, ptr }
%struct.connListener = type { [16 x i32], i32, ptr, i32, i32, ptr, ptr }
%struct.pause_event = type { i32, i64 }
%struct.malloc_stats = type { i64, i64, i64, i64, i64, i64, i64, i64, i64, i64, i64 }
%struct.anon = type { i64, i64, [16 x i64], i32 }
%struct.durationStats = type { i64, i64, i64 }
%struct.clientBufferLimitsConfig = type { i64, i64, i64 }
%struct.redisOpArray = type { ptr, i32, i32 }
%struct.replDataBuf = type { ptr, i64, i64, i64, i64 }
%struct.aclInfo = type { i64, i64, i64, i64 }
%struct.redisTLSContextConfig = type { ptr, ptr, ptr, ptr, ptr, ptr, ptr, ptr, ptr, ptr, ptr, ptr, i32, i32, i32, i32 }
%struct._clusterNode = type { i64, [40 x i8], [40 x i8], i32, i64, [2048 x i8], ptr, i32, i32, i32, ptr, ptr, i64, i64, i64, i64, i64, i64, i64, i64, i64, [46 x i8], ptr, ptr, i32, i32, i32, ptr, ptr, ptr }
%struct.list = type { ptr, ptr, ptr, ptr, ptr, i64 }
%struct.ConnectionType = type { ptr, ptr, ptr, ptr, ptr, ptr, ptr, ptr, ptr, ptr, ptr, ptr, ptr, ptr, ptr, ptr, ptr, ptr, ptr, ptr, ptr, ptr, ptr, ptr, ptr, ptr, ptr, ptr, ptr, ptr }
%struct.clusterLink = type { i64, ptr, ptr, i64, i64, ptr, i64, i64, ptr, i32 }
%struct.connection = type { ptr, i32, i32, i32, i16, i16, i16, ptr, ptr, ptr, ptr, ptr }

@server = external global %struct.redisServer, align 8
@.str.18 = private unnamed_addr constant [17 x i8] c"cluster_legacy.c\00", align 1
@.str.50 = private unnamed_addr constant [15 x i8] c"!link->inbound\00", align 1
@.str.51 = private unnamed_addr constant [14 x i8] c"link->inbound\00", align 1

; Function Attrs: inlinehint nounwind uwtable
define internal void @connClose(ptr noundef %0) #5 {
  %2 = alloca ptr, align 8
  store ptr %0, ptr %2, align 8, !tbaa !165
  %3 = load ptr, ptr %2, align 8, !tbaa !165
  %4 = getelementptr inbounds nuw %struct.connection, ptr %3, i32 0, i32 0
  %5 = load ptr, ptr %4, align 8, !tbaa !190
  %6 = getelementptr inbounds nuw %struct.ConnectionType, ptr %5, i32 0, i32 12
  %7 = load ptr, ptr %6, align 8, !tbaa !192
  %8 = load ptr, ptr %2, align 8, !tbaa !165
  call void %7(ptr noundef %8)
  ret void
}

; Function Attrs: nounwind uwtable
define dso_local void @freeClusterLink(ptr noundef %0) #0 {
  %2 = alloca ptr, align 8
  store ptr %0, ptr %2, align 8, !tbaa !172
  %3 = load ptr, ptr %2, align 8, !tbaa !172
  %4 = getelementptr inbounds nuw %struct.clusterLink, ptr %3, i32 0, i32 1
  %5 = load ptr, ptr %4, align 8, !tbaa !182
  %6 = icmp ne ptr %5, null
  br i1 %6, label %7, label %13

7:                                                ; preds = %1
  %8 = load ptr, ptr %2, align 8, !tbaa !172
  %9 = getelementptr inbounds nuw %struct.clusterLink, ptr %8, i32 0, i32 1
  %10 = load ptr, ptr %9, align 8, !tbaa !182
  call void @connClose(ptr noundef %10)
  %11 = load ptr, ptr %2, align 8, !tbaa !172
  %12 = getelementptr inbounds nuw %struct.clusterLink, ptr %11, i32 0, i32 1
  store ptr null, ptr %12, align 8, !tbaa !182
  br label %13

13:                                               ; preds = %7, %1
  %14 = load ptr, ptr %2, align 8, !tbaa !172
  %15 = getelementptr inbounds nuw %struct.clusterLink, ptr %14, i32 0, i32 2
  %16 = load ptr, ptr %15, align 8, !tbaa !175
  %17 = getelementptr inbounds nuw %struct.list, ptr %16, i32 0, i32 5
  %18 = load i64, ptr %17, align 8, !tbaa !189
  %19 = mul i64 %18, 24
  %20 = add i64 48, %19
  %21 = load i64, ptr getelementptr inbounds nuw (%struct.redisServer, ptr @server, i32 0, i32 143), align 8, !tbaa !181
  %22 = sub i64 %21, %20
  store i64 %22, ptr getelementptr inbounds nuw (%struct.redisServer, ptr @server, i32 0, i32 143), align 8, !tbaa !181
  %23 = load ptr, ptr %2, align 8, !tbaa !172
  %24 = getelementptr inbounds nuw %struct.clusterLink, ptr %23, i32 0, i32 2
  %25 = load ptr, ptr %24, align 8, !tbaa !175
  call void @listRelease(ptr noundef %25)
  %26 = load ptr, ptr %2, align 8, !tbaa !172
  %27 = getelementptr inbounds nuw %struct.clusterLink, ptr %26, i32 0, i32 7
  %28 = load i64, ptr %27, align 8, !tbaa !178
  %29 = load i64, ptr getelementptr inbounds nuw (%struct.redisServer, ptr @server, i32 0, i32 143), align 8, !tbaa !181
  %30 = sub i64 %29, %28
  store i64 %30, ptr getelementptr inbounds nuw (%struct.redisServer, ptr @server, i32 0, i32 143), align 8, !tbaa !181
  %31 = load ptr, ptr %2, align 8, !tbaa !172
  %32 = getelementptr inbounds nuw %struct.clusterLink, ptr %31, i32 0, i32 5
  %33 = load ptr, ptr %32, align 8, !tbaa !179
  call void @zfree(ptr noundef %33)
  %34 = load ptr, ptr %2, align 8, !tbaa !172
  %35 = getelementptr inbounds nuw %struct.clusterLink, ptr %34, i32 0, i32 8
  %36 = load ptr, ptr %35, align 8, !tbaa !183
  %37 = icmp ne ptr %36, null
  br i1 %37, label %38, label %95

38:                                               ; preds = %13
  %39 = load ptr, ptr %2, align 8, !tbaa !172
  %40 = getelementptr inbounds nuw %struct.clusterLink, ptr %39, i32 0, i32 8
  %41 = load ptr, ptr %40, align 8, !tbaa !183
  %42 = getelementptr inbounds nuw %struct._clusterNode, ptr %41, i32 0, i32 27
  %43 = load ptr, ptr %42, align 8, !tbaa !102
  %44 = load ptr, ptr %2, align 8, !tbaa !172
  %45 = icmp eq ptr %43, %44
  br i1 %45, label %46, label %66

46:                                               ; preds = %38
  %47 = load ptr, ptr %2, align 8, !tbaa !172
  %48 = getelementptr inbounds nuw %struct.clusterLink, ptr %47, i32 0, i32 9
  %49 = load i32, ptr %48, align 8, !tbaa !184
  %50 = icmp ne i32 %49, 0
  %51 = xor i1 %50, true
  %52 = xor i1 %51, true
  %53 = xor i1 %52, true
  %54 = zext i1 %53 to i32
  %55 = sext i32 %54 to i64
  %56 = call i64 @llvm.expect.i64(i64 %55, i64 1)
  %57 = icmp ne i64 %56, 0
  br i1 %57, label %58, label %59

58:                                               ; preds = %46
  br label %61

59:                                               ; preds = %46
  call void @_serverAssert(ptr noundef @.str.50, ptr noundef @.str.18, i32 noundef 1191)
  call void @abort() #18
  unreachable

60:                                               ; No predecessors!
  br label %61

61:                                               ; preds = %60, %58
  %62 = load ptr, ptr %2, align 8, !tbaa !172
  %63 = getelementptr inbounds nuw %struct.clusterLink, ptr %62, i32 0, i32 8
  %64 = load ptr, ptr %63, align 8, !tbaa !183
  %65 = getelementptr inbounds nuw %struct._clusterNode, ptr %64, i32 0, i32 27
  store ptr null, ptr %65, align 8, !tbaa !102
  br label %94

66:                                               ; preds = %38
  %67 = load ptr, ptr %2, align 8, !tbaa !172
  %68 = getelementptr inbounds nuw %struct.clusterLink, ptr %67, i32 0, i32 8
  %69 = load ptr, ptr %68, align 8, !tbaa !183
  %70 = getelementptr inbounds nuw %struct._clusterNode, ptr %69, i32 0, i32 28
  %71 = load ptr, ptr %70, align 8, !tbaa !103
  %72 = load ptr, ptr %2, align 8, !tbaa !172
  %73 = icmp eq ptr %71, %72
  br i1 %73, label %74, label %93

74:                                               ; preds = %66
  %75 = load ptr, ptr %2, align 8, !tbaa !172
  %76 = getelementptr inbounds nuw %struct.clusterLink, ptr %75, i32 0, i32 9
  %77 = load i32, ptr %76, align 8, !tbaa !184
  %78 = icmp ne i32 %77, 0
  %79 = xor i1 %78, true
  %80 = xor i1 %79, true
  %81 = zext i1 %80 to i32
  %82 = sext i32 %81 to i64
  %83 = call i64 @llvm.expect.i64(i64 %82, i64 1)
  %84 = icmp ne i64 %83, 0
  br i1 %84, label %85, label %86

85:                                               ; preds = %74
  br label %88

86:                                               ; preds = %74
  call void @_serverAssert(ptr noundef @.str.51, ptr noundef @.str.18, i32 noundef 1194)
  call void @abort() #18
  unreachable

87:                                               ; No predecessors!
  br label %88

88:                                               ; preds = %87, %85
  %89 = load ptr, ptr %2, align 8, !tbaa !172
  %90 = getelementptr inbounds nuw %struct.clusterLink, ptr %89, i32 0, i32 8
  %91 = load ptr, ptr %90, align 8, !tbaa !183
  %92 = getelementptr inbounds nuw %struct._clusterNode, ptr %91, i32 0, i32 28
  store ptr null, ptr %92, align 8, !tbaa !103
  br label %93

93:                                               ; preds = %88, %66
  br label %94

94:                                               ; preds = %93, %61
  br label %95

95:                                               ; preds = %94, %13
  %96 = load ptr, ptr %2, align 8, !tbaa !172
  call void @zfree(ptr noundef %96)
  ret void
}