; Function Attrs: nounwind uwtable
define dso_local void @freeClusterLink(ptr noundef %0) local_unnamed_addr #3 {
  %2 = getelementptr inbounds nuw i8, ptr %0, i64 8
  %3 = load ptr, ptr %2, align 8, !tbaa !161
  %.not = icmp eq ptr %3, null
  br i1 %.not, label %8, label %4

4:                                                ; preds = %1
  %5 = load ptr, ptr %3, align 8, !tbaa !139
  %6 = getelementptr inbounds nuw i8, ptr %5, i64 96
  %7 = load ptr, ptr %6, align 8, !tbaa !141
  tail call void %7(ptr noundef nonnull %3) #33
  store ptr null, ptr %2, align 8, !tbaa !161
  br label %8

8:                                                ; preds = %4, %1
  %9 = getelementptr inbounds nuw i8, ptr %0, i64 16
  %10 = load ptr, ptr %9, align 8, !tbaa !154
  %11 = getelementptr inbounds nuw i8, ptr %10, i64 40
  %12 = load i64, ptr %11, align 8, !tbaa !169
  %.neg = mul i64 %12, -24
  %.neg19 = add i64 %.neg, -48
  %13 = load i64, ptr getelementptr inbounds nuw (i8, ptr @server, i64 2984), align 8, !tbaa !160
  %14 = add i64 %.neg19, %13
  store i64 %14, ptr getelementptr inbounds nuw (i8, ptr @server, i64 2984), align 8, !tbaa !160
  tail call void @listRelease(ptr noundef %10) #33
  %15 = getelementptr inbounds nuw i8, ptr %0, i64 56
  %16 = load i64, ptr %15, align 8, !tbaa !157
  %17 = load i64, ptr getelementptr inbounds nuw (i8, ptr @server, i64 2984), align 8, !tbaa !160
  %18 = sub i64 %17, %16
  store i64 %18, ptr getelementptr inbounds nuw (i8, ptr @server, i64 2984), align 8, !tbaa !160
  %19 = getelementptr inbounds nuw i8, ptr %0, i64 40
  %20 = load ptr, ptr %19, align 8, !tbaa !158
  tail call void @zfree(ptr noundef %20) #33
  %21 = getelementptr inbounds nuw i8, ptr %0, i64 64
  %22 = load ptr, ptr %21, align 8, !tbaa !162
  %.not20 = icmp eq ptr %22, null
  br i1 %.not20, label %41, label %23

23:                                               ; preds = %8
  %24 = getelementptr inbounds nuw i8, ptr %22, i64 2344
  %25 = load ptr, ptr %24, align 8, !tbaa !164
  %26 = icmp eq ptr %25, %0
  br i1 %26, label %27, label %32

27:                                               ; preds = %23
  %28 = getelementptr inbounds nuw i8, ptr %0, i64 72
  %29 = load i32, ptr %28, align 8, !tbaa !163
  %.not22 = icmp eq i32 %29, 0
  br i1 %.not22, label %31, label %30, !prof !62

30:                                               ; preds = %27
  tail call void @_serverAssert(ptr noundef nonnull @.str.50, ptr noundef nonnull @.str.18, i32 noundef 1191) #33
  tail call void @abort() #35
  unreachable

31:                                               ; preds = %27
  store ptr null, ptr %24, align 8, !tbaa !164
  br label %41

32:                                               ; preds = %23
  %33 = getelementptr inbounds nuw i8, ptr %22, i64 2352
  %34 = load ptr, ptr %33, align 8, !tbaa !170
  %35 = icmp eq ptr %34, %0
  br i1 %35, label %36, label %41

36:                                               ; preds = %32
  %37 = getelementptr inbounds nuw i8, ptr %0, i64 72
  %38 = load i32, ptr %37, align 8, !tbaa !163
  %.not21 = icmp eq i32 %38, 0
  br i1 %.not21, label %39, label %40, !prof !90

39:                                               ; preds = %36
  tail call void @_serverAssert(ptr noundef nonnull @.str.51, ptr noundef nonnull @.str.18, i32 noundef 1194) #33
  tail call void @abort() #35
  unreachable

40:                                               ; preds = %36
  store ptr null, ptr %33, align 8, !tbaa !170
  br label %41

41:                                               ; preds = %31, %40, %32, %8
  tail call void @zfree(ptr noundef nonnull %0) #33
  ret void
}